target datalayout = "e-m:e-p270:32:32-p271:32:32-p272:64:64-i64:64-i128:128-f80:128-n8:16:32:64-S128"
target triple = "x86_64-pc-linux-gnu"

%struct.AVBPrint = type { ptr, i32, i32, i32, [1 x i8], [1000 x i8] }

@.str.10 = private unnamed_addr constant [2 x i8] c"\0A\00", align 1
@.str.21 = private unnamed_addr constant [7 x i8] c"%08x: \00", align 1

; Function Attrs: nounwind uwtable
define void @avtext_print_integers(ptr noundef %0, ptr noundef %1, ptr noundef %2, i32 noundef %3, ptr noundef %4, i32 noundef %5, i32 noundef %6, i32 noundef %7) #0 {
  %9 = alloca ptr, align 8
  %10 = alloca ptr, align 8
  %11 = alloca ptr, align 8
  %12 = alloca i32, align 4
  %13 = alloca ptr, align 8
  %14 = alloca i32, align 4
  %15 = alloca i32, align 4
  %16 = alloca i32, align 4
  %17 = alloca %struct.AVBPrint, align 8
  %18 = alloca i32, align 4
  %19 = alloca i32, align 4
  %20 = alloca i32, align 4
  %21 = alloca i32, align 4
  store ptr %0, ptr %9, align 8, !tbaa !10
  store ptr %1, ptr %10, align 8, !tbaa !30
  store ptr %2, ptr %11, align 8, !tbaa !30
  store i32 %3, ptr %12, align 4, !tbaa !12
  store ptr %4, ptr %13, align 8, !tbaa !30
  store i32 %5, ptr %14, align 4, !tbaa !12
  store i32 %6, ptr %15, align 4, !tbaa !12
  store i32 %7, ptr %16, align 4, !tbaa !12
  call void @llvm.lifetime.start.p0(i64 1024, ptr %17) #10
  call void @llvm.lifetime.start.p0(i64 4, ptr %18) #10
  store i32 0, ptr %18, align 4, !tbaa !12
  call void @llvm.lifetime.start.p0(i64 4, ptr %19) #10
  call void @llvm.lifetime.start.p0(i64 4, ptr %20) #10
  %22 = load ptr, ptr %10, align 8, !tbaa !30
  %23 = icmp ne ptr %22, null
  br i1 %23, label %24, label %36

24:                                               ; preds = %8
  %25 = load ptr, ptr %11, align 8, !tbaa !30
  %26 = icmp ne ptr %25, null
  br i1 %26, label %27, label %36

27:                                               ; preds = %24
  %28 = load ptr, ptr %13, align 8, !tbaa !30
  %29 = icmp ne ptr %28, null
  br i1 %29, label %30, label %36

30:                                               ; preds = %27
  %31 = load i32, ptr %14, align 4, !tbaa !12
  %32 = icmp sle i32 %31, 0
  br i1 %32, label %36, label %33

33:                                               ; preds = %30
  %34 = load i32, ptr %15, align 4, !tbaa !12
  %35 = icmp sle i32 %34, 0
  br i1 %35, label %36, label %37

36:                                               ; preds = %33, %30, %27, %24, %8
  store i32 1, ptr %21, align 4
  br label %102

37:                                               ; preds = %33
  call void @av_bprint_init(ptr noundef %17, i32 noundef 0, i32 noundef -1)
  call void (ptr, ptr, ...) @av_bprintf(ptr noundef %17, ptr noundef @.str.10)
  br label %38

38:                                               ; preds = %91, %37
  %39 = load i32, ptr %12, align 4, !tbaa !12
  %40 = icmp ne i32 %39, 0
  br i1 %40, label %41, label %95

41:                                               ; preds = %38
  %42 = load i32, ptr %18, align 4, !tbaa !12
  call void (ptr, ptr, ...) @av_bprintf(ptr noundef %17, ptr noundef @.str.21, i32 noundef %42)
  %43 = load i32, ptr %12, align 4, !tbaa !12
  %44 = load i32, ptr %14, align 4, !tbaa !12
  %45 = icmp sgt i32 %43, %44
  br i1 %45, label %46, label %48

46:                                               ; preds = %41
  %47 = load i32, ptr %14, align 4, !tbaa !12
  br label %50

48:                                               ; preds = %41
  %49 = load i32, ptr %12, align 4, !tbaa !12
  br label %50

50:                                               ; preds = %48, %46
  %51 = phi i32 [ %47, %46 ], [ %49, %48 ]
  store i32 %51, ptr %19, align 4, !tbaa !12
  store i32 0, ptr %20, align 4, !tbaa !12
  br label %52

52:                                               ; preds = %88, %50
  %53 = load i32, ptr %20, align 4, !tbaa !12
  %54 = load i32, ptr %19, align 4, !tbaa !12
  %55 = icmp slt i32 %53, %54
  br i1 %55, label %56, label %91

56:                                               ; preds = %52
  %57 = load i32, ptr %15, align 4, !tbaa !12
  %58 = icmp eq i32 %57, 1
  br i1 %58, label %59, label %64

59:                                               ; preds = %56
  %60 = load ptr, ptr %13, align 8, !tbaa !30
  %61 = load ptr, ptr %11, align 8, !tbaa !30
  %62 = load i8, ptr %61, align 1, !tbaa !62
  %63 = zext i8 %62 to i32
  call void (ptr, ptr, ...) @av_bprintf(ptr noundef %17, ptr noundef %60, i32 noundef %63)
  br label %81

64:                                               ; preds = %56
  %65 = load i32, ptr %15, align 4, !tbaa !12
  %66 = icmp eq i32 %65, 2
  br i1 %66, label %67, label %72

67:                                               ; preds = %64
  %68 = load ptr, ptr %13, align 8, !tbaa !30
  %69 = load ptr, ptr %11, align 8, !tbaa !30
  %70 = load i16, ptr %69, align 1, !tbaa !62
  %71 = zext i16 %70 to i32
  call void (ptr, ptr, ...) @av_bprintf(ptr noundef %17, ptr noundef %68, i32 noundef %71)
  br label %80

72:                                               ; preds = %64
  %73 = load i32, ptr %15, align 4, !tbaa !12
  %74 = icmp eq i32 %73, 4
  br i1 %74, label %75, label %79

75:                                               ; preds = %72
  %76 = load ptr, ptr %13, align 8, !tbaa !30
  %77 = load ptr, ptr %11, align 8, !tbaa !30
  %78 = load i32, ptr %77, align 1, !tbaa !62
  call void (ptr, ptr, ...) @av_bprintf(ptr noundef %17, ptr noundef %76, i32 noundef %78)
  br label %79

79:                                               ; preds = %75, %72
  br label %80

80:                                               ; preds = %79, %67
  br label %81

81:                                               ; preds = %80, %59
  %82 = load i32, ptr %15, align 4, !tbaa !12
  %83 = load ptr, ptr %11, align 8, !tbaa !30
  %84 = sext i32 %82 to i64
  %85 = getelementptr inbounds i8, ptr %83, i64 %84
  store ptr %85, ptr %11, align 8, !tbaa !30
  %86 = load i32, ptr %12, align 4, !tbaa !12
  %87 = add nsw i32 %86, -1
  store i32 %87, ptr %12, align 4, !tbaa !12
  br label %88

88:                                               ; preds = %81
  %89 = load i32, ptr %20, align 4, !tbaa !12
  %90 = add nsw i32 %89, 1
  store i32 %90, ptr %20, align 4, !tbaa !12
  br label %52, !llvm.loop !105

91:                                               ; preds = %52
  call void (ptr, ptr, ...) @av_bprintf(ptr noundef %17, ptr noundef @.str.10)
  %92 = load i32, ptr %16, align 4, !tbaa !12
  %93 = load i32, ptr %18, align 4, !tbaa !12
  %94 = add i32 %93, %92
  store i32 %94, ptr %18, align 4, !tbaa !12
  br label %38, !llvm.loop !106

95:                                               ; preds = %38
  %96 = load ptr, ptr %9, align 8, !tbaa !10
  %97 = load ptr, ptr %10, align 8, !tbaa !30
  %98 = getelementptr inbounds nuw %struct.AVBPrint, ptr %17, i32 0, i32 0
  %99 = load ptr, ptr %98, align 8, !tbaa !64
  %100 = call i32 @avtext_print_string(ptr noundef %96, ptr noundef %97, ptr noundef %99, i32 noundef 0)
  %101 = call i32 @av_bprint_finalize(ptr noundef %17, ptr noundef null)
  store i32 0, ptr %21, align 4
  br label %102

102:                                              ; preds = %95, %36
  call void @llvm.lifetime.end.p0(i64 4, ptr %20) #10
  call void @llvm.lifetime.end.p0(i64 4, ptr %19) #10
  call void @llvm.lifetime.end.p0(i64 4, ptr %18) #10
  call void @llvm.lifetime.end.p0(i64 1024, ptr %17) #10
  %103 = load i32, ptr %21, align 4
  switch i32 %103, label %105 [
    i32 0, label %104
    i32 1, label %104
  ]

104:                                              ; preds = %102, %102
  ret void

105:                                              ; preds = %102
  unreachable
}