; Function Attrs: nounwind uwtable
define void @avtext_print_integers(ptr noundef %0, ptr noundef %1, ptr noundef readonly captures(address_is_null) %2, i32 noundef %3, ptr noundef %4, i32 noundef %5, i32 noundef %6, i32 noundef %7) local_unnamed_addr #0 {
  %9 = alloca %struct.AVBPrint, align 8
  call void @llvm.lifetime.start.p0(i64 1024, ptr nonnull %9) #12
  %10 = icmp eq ptr %1, null
  %11 = icmp eq ptr %2, null
  %or.cond.not45 = or i1 %10, %11
  %12 = icmp eq ptr %4, null
  %or.cond3.not42 = or i1 %or.cond.not45, %12
  %13 = icmp slt i32 %5, 1
  %or.cond5 = or i1 %or.cond3.not42, %13
  %14 = icmp slt i32 %6, 1
  %or.cond7 = or i1 %or.cond5, %14
  br i1 %or.cond7, label %41, label %15

15:                                               ; preds = %8
  call void @av_bprint_init(ptr noundef nonnull %9, i32 noundef 0, i32 noundef -1) #12
  call void (ptr, ptr, ...) @av_bprintf(ptr noundef nonnull %9, ptr noundef nonnull @.str.10) #12
  %.not67 = icmp eq i32 %3, 0
  br i1 %.not67, label %._crit_edge73, label %.lr.ph72

.lr.ph72:                                         ; preds = %15
  %16 = zext nneg i32 %6 to i64
  br label %17

17:                                               ; preds = %.lr.ph72, %._crit_edge
  %.03670 = phi ptr [ %2, %.lr.ph72 ], [ %.1.lcssa, %._crit_edge ]
  %.03769 = phi i32 [ 0, %.lr.ph72 ], [ %37, %._crit_edge ]
  %.03868 = phi i32 [ %3, %.lr.ph72 ], [ %.139.lcssa, %._crit_edge ]
  call void (ptr, ptr, ...) @av_bprintf(ptr noundef nonnull %9, ptr noundef nonnull @.str.21, i32 noundef %.03769) #12
  %18 = call i32 @llvm.smin.i32(i32 %.03868, i32 %5)
  %19 = icmp sgt i32 %18, 0
  br i1 %19, label %.lr.ph, label %._crit_edge

.lr.ph:                                           ; preds = %17
  switch i32 %6, label %.lr.ph.split.preheader [
    i32 1, label %.lr.ph.split.us
    i32 2, label %.lr.ph.split.us51
    i32 4, label %.lr.ph.split.us59
  ]

.lr.ph.split.preheader:                           ; preds = %.lr.ph
  %20 = zext nneg i32 %18 to i64
  %21 = mul nuw nsw i64 %16, %20
  %scevgep = getelementptr i8, ptr %.03670, i64 %21
  %22 = sub i32 %.03868, %18
  br label %._crit_edge

.lr.ph.split.us:                                  ; preds = %.lr.ph, %.lr.ph.split.us
  %.048.us = phi i32 [ %26, %.lr.ph.split.us ], [ 0, %.lr.ph ]
  %.147.us = phi ptr [ %25, %.lr.ph.split.us ], [ %.03670, %.lr.ph ]
  %23 = load i8, ptr %.147.us, align 1, !tbaa !52
  %24 = zext i8 %23 to i32
  call void (ptr, ptr, ...) @av_bprintf(ptr noundef nonnull %9, ptr noundef %4, i32 noundef %24) #12
  %25 = getelementptr inbounds nuw i8, ptr %.147.us, i64 %16
  %26 = add nuw nsw i32 %.048.us, 1
  %exitcond85.not = icmp eq i32 %26, %18
  br i1 %exitcond85.not, label %._crit_edge.loopexit74, label %.lr.ph.split.us, !llvm.loop !78

.lr.ph.split.us51:                                ; preds = %.lr.ph, %.lr.ph.split.us51
  %.048.us52 = phi i32 [ %30, %.lr.ph.split.us51 ], [ 0, %.lr.ph ]
  %.147.us53 = phi ptr [ %29, %.lr.ph.split.us51 ], [ %.03670, %.lr.ph ]
  %27 = load i16, ptr %.147.us53, align 1, !tbaa !52
  %28 = zext i16 %27 to i32
  call void (ptr, ptr, ...) @av_bprintf(ptr noundef nonnull %9, ptr noundef %4, i32 noundef %28) #12
  %29 = getelementptr inbounds nuw i8, ptr %.147.us53, i64 %16
  %30 = add nuw nsw i32 %.048.us52, 1
  %exitcond84.not = icmp eq i32 %30, %18
  br i1 %exitcond84.not, label %._crit_edge.loopexit75, label %.lr.ph.split.us51, !llvm.loop !78

.lr.ph.split.us59:                                ; preds = %.lr.ph, %.lr.ph.split.us59
  %.048.us60 = phi i32 [ %33, %.lr.ph.split.us59 ], [ 0, %.lr.ph ]
  %.147.us61 = phi ptr [ %32, %.lr.ph.split.us59 ], [ %.03670, %.lr.ph ]
  %31 = load i32, ptr %.147.us61, align 1, !tbaa !52
  call void (ptr, ptr, ...) @av_bprintf(ptr noundef nonnull %9, ptr noundef %4, i32 noundef %31) #12
  %32 = getelementptr inbounds nuw i8, ptr %.147.us61, i64 %16
  %33 = add nuw nsw i32 %.048.us60, 1
  %exitcond.not = icmp eq i32 %33, %18
  br i1 %exitcond.not, label %._crit_edge.loopexit76, label %.lr.ph.split.us59, !llvm.loop !78

._crit_edge.loopexit74:                           ; preds = %.lr.ph.split.us
  %34 = sub i32 %.03868, %18
  br label %._crit_edge

._crit_edge.loopexit75:                           ; preds = %.lr.ph.split.us51
  %35 = sub i32 %.03868, %18
  br label %._crit_edge

._crit_edge.loopexit76:                           ; preds = %.lr.ph.split.us59
  %36 = sub i32 %.03868, %18
  br label %._crit_edge

._crit_edge:                                      ; preds = %._crit_edge.loopexit76, %._crit_edge.loopexit75, %._crit_edge.loopexit74, %.lr.ph.split.preheader, %17
  %.139.lcssa = phi i32 [ %.03868, %17 ], [ %22, %.lr.ph.split.preheader ], [ %34, %._crit_edge.loopexit74 ], [ %35, %._crit_edge.loopexit75 ], [ %36, %._crit_edge.loopexit76 ]
  %.1.lcssa = phi ptr [ %.03670, %17 ], [ %scevgep, %.lr.ph.split.preheader ], [ %25, %._crit_edge.loopexit74 ], [ %29, %._crit_edge.loopexit75 ], [ %32, %._crit_edge.loopexit76 ]
  call void (ptr, ptr, ...) @av_bprintf(ptr noundef nonnull %9, ptr noundef nonnull @.str.10) #12
  %37 = add i32 %.03769, %7
  %.not = icmp eq i32 %.139.lcssa, 0
  br i1 %.not, label %._crit_edge73, label %17, !llvm.loop !79

._crit_edge73:                                    ; preds = %._crit_edge, %15
  %38 = load ptr, ptr %9, align 8, !tbaa !56
  %39 = call i32 @avtext_print_string(ptr noundef %0, ptr noundef %1, ptr noundef %38, i32 noundef 0)
  %40 = call i32 @av_bprint_finalize(ptr noundef nonnull %9, ptr noundef null) #12
  br label %41

41:                                               ; preds = %8, %._crit_edge73
  call void @llvm.lifetime.end.p0(i64 1024, ptr nonnull %9) #12
  ret void
}